Certificate:
    Data:
        Version: 3 (0x2)
        Serial Number: 16 (0x10)
        Signature Algorithm: ED25519
        Issuer: C=US, O=Oxide Computer Company, CN=0XV2:000-0000000:000:00000000001
        Validity
            Not Before: Jun  9 19:34:06 2024 GMT
            Not After : Dec 31 23:59:59 9999 GMT
        Subject: C=US, O=Oxide Computer Company, CN=0XV2:000-0000000:000:00000000001
        Subject Public Key Info:
            Public Key Algorithm: ED25519
                ED25519 Public-Key:
                pub:
                    fc:cc:2d:1f:0a:35:58:07:5a:82:d9:02:8a:e6:49:
                    39:5f:ab:58:f9:35:e5:3a:23:20:75:30:00:90:db:
                    87:1c
        X509v3 extensions:
            X509v3 Basic Constraints: critical
                CA:TRUE
            X509v3 Key Usage: critical
                Certificate Sign
            X509v3 Certificate Policies: critical
                Policy: tcg-dice-kp-identityInit
                Policy: tcg-dice-kp-attestInit
                Policy: tcg-dice-kp-eca
    Signature Algorithm: ED25519
    Signature Value:
        79:cd:9f:54:6b:bf:2d:37:34:84:6c:da:d7:bb:d2:cf:bd:1c:
        2c:08:73:d3:d9:7f:98:8e:d0:2b:a1:63:91:2d:41:83:e4:d2:
        dd:7f:94:5f:24:eb:d1:12:51:dd:de:1f:ff:35:a4:ee:20:46:
        e1:58:a6:a7:27:23:fc:96:d5:0f
-----BEGIN CERTIFICATE-----
MIIBtTCCAWegAwIBAgIBEDAFBgMrZXAwWTELMAkGA1UEBhMCVVMxHzAdBgNVBAoM
Fk94aWRlIENvbXB1dGVyIENvbXBhbnkxKTAnBgNVBAMMIDBYVjI6MDAwLTAwMDAw
MDA6MDAwOjAwMDAwMDAwMDAxMCAXDTI0MDYwOTE5MzQwNloYDzk5OTkxMjMxMjM1
OTU5WjBZMQswCQYDVQQGEwJVUzEfMB0GA1UECgwWT3hpZGUgQ29tcHV0ZXIgQ29t
cGFueTEpMCcGA1UEAwwgMFhWMjowMDAtMDAwMDAwMDowMDA6MDAwMDAwMDAwMDEw
KjAFBgMrZXADIQD8zC0fCjVYB1qC2QKK5kk5X6tY+TXlOiMgdTAAkNuHHKNSMFAw
DwYDVR0TAQH/BAUwAwEB/zAOBgNVHQ8BAf8EBAMCAgQwLQYDVR0gAQH/BCMwITAJ
BgdngQUFBGQGMAkGB2eBBQUEZAgwCQYHZ4EFBQRkDDAFBgMrZXADQQB5zZ9Ua78t
NzSEbNrXu9LPvRwsCHPT2X+YjtAroWORLUGD5NLdf5RfJOvRElHd3h//NaTuIEbh
WKanJyP8ltUP
-----END CERTIFICATE-----
